target datalayout = "e-m:e-p270:32:32-p271:32:32-p272:64:64-i64:64-i128:128-f80:128-n8:16:32:64-S128"
target triple = "x86_64-pc-linux-gnu"

%struct.anon = type { %struct.Type_, %struct.Type_, %struct.Type_, %struct.Type_, %struct.Type_, %struct.Type_, %struct.Type_, %struct.Type_, %struct.Type_, %struct.Type_, %struct.Type_, %struct.Type_, %struct.Type_, %struct.Type_, %struct.Type_, %struct.Type_, %struct.Type_, %struct.Type_, %struct.Type_, %struct.Type_, %struct.Type_, %struct.Type_, %struct.Type_, %struct.Type_, %struct.Type_, %struct.Type_, %struct.Type_, %struct.Type_, %struct.Type_, %struct.Type_ }
%struct.Type_ = type { i32, ptr, ptr, ptr, %union.anon, ptr, ptr, %union.anon.1 }
%union.anon = type { ptr }
%union.anon.1 = type { %struct.TypeFunction }
%struct.TypeFunction = type { ptr, ptr, ptr }
%union.SourceSpan = type { i64 }
%struct.Decl_ = type { ptr, ptr, %union.SourceSpan, i64, %union.anon.3, i32, %union.anon.4, i64, ptr, ptr, ptr, %union.anon.5 }
%union.anon.3 = type { ptr }
%union.anon.4 = type { i16 }
%union.anon.5 = type { %struct.FuncDecl }
%struct.FuncDecl = type { i32, [4 x i8], %struct.Signature_, i32, i32, %union.anon.12 }
%struct.Signature_ = type <{ %struct.CalleeAttributes, i16, i8, i32, i32, [4 x i8], ptr }>
%struct.CalleeAttributes = type { i8 }
%union.anon.12 = type { %struct.anon.13 }
%struct.anon.13 = type { i16, %union.anon.14 }
%union.anon.14 = type { ptr }
%struct.TypeArray = type { ptr, i32 }
%struct.anon.6 = type { ptr, ptr, %union.anon.7 }
%union.anon.7 = type { %struct.BitStructDecl }
%struct.BitStructDecl = type { ptr, ptr, i8 }
%struct.TypeInfo_ = type { i16, ptr, %union.SourceSpan, %union.anon.54 }
%union.anon.54 = type { %struct.anon.55 }
%struct.anon.55 = type { ptr, ptr }
%struct.EnumDecl = type { ptr, ptr, ptr }

@t = internal global %struct.anon zeroinitializer, align 8
@.str = private unnamed_addr constant [36 x i8] c"FATAL ERROR %s -> in %s @ in %s:%d \00", align 1
@.str.2 = private unnamed_addr constant [106 x i8] c"generated/home/dtcxzyw/WorkSpace/Projects/compilers/llvm-opt-benchmark/bench/c3c/c3c/src/compiler/types.c\00", align 1
@.str.17 = private unnamed_addr constant [22 x i8] c"Should be unreachable\00", align 1
@__func__.type_abi_alignment = private unnamed_addr constant [19 x i8] c"type_abi_alignment\00", align 1
@max_alignment_vector = internal global i32 0, align 4
@alignment_subarray = internal global i32 0, align 4

; Function Attrs: nounwind uwtable
define internal i32 @next_highest_power_of_2(i32 noundef %0) #0 {
  %2 = alloca i32, align 4
  store i32 %0, ptr %2, align 4
  %3 = load i32, ptr %2, align 4
  %4 = add i32 %3, -1
  store i32 %4, ptr %2, align 4
  %5 = load i32, ptr %2, align 4
  %6 = lshr i32 %5, 1
  %7 = load i32, ptr %2, align 4
  %8 = or i32 %7, %6
  store i32 %8, ptr %2, align 4
  %9 = load i32, ptr %2, align 4
  %10 = lshr i32 %9, 2
  %11 = load i32, ptr %2, align 4
  %12 = or i32 %11, %10
  store i32 %12, ptr %2, align 4
  %13 = load i32, ptr %2, align 4
  %14 = lshr i32 %13, 4
  %15 = load i32, ptr %2, align 4
  %16 = or i32 %15, %14
  store i32 %16, ptr %2, align 4
  %17 = load i32, ptr %2, align 4
  %18 = lshr i32 %17, 8
  %19 = load i32, ptr %2, align 4
  %20 = or i32 %19, %18
  store i32 %20, ptr %2, align 4
  %21 = load i32, ptr %2, align 4
  %22 = lshr i32 %21, 16
  %23 = load i32, ptr %2, align 4
  %24 = or i32 %23, %22
  store i32 %24, ptr %2, align 4
  %25 = load i32, ptr %2, align 4
  %26 = add i32 %25, 1
  store i32 %26, ptr %2, align 4
  %27 = load i32, ptr %2, align 4
  ret i32 %27
}

; Function Attrs: nounwind uwtable
define dso_local i32 @type_abi_alignment(ptr noundef %0) #0 {
  %2 = alloca i32, align 4
  %3 = alloca ptr, align 8
  %4 = alloca i32, align 4
  %5 = alloca i64, align 8
  %6 = alloca i32, align 4
  store ptr %0, ptr %3, align 8
  br label %7

7:                                                ; preds = %116, %80, %76, %67, %63, %14, %1
  %8 = load ptr, ptr %3, align 8
  %9 = getelementptr inbounds %struct.Type_, ptr %8, i32 0, i32 0
  %10 = load i32, ptr %9, align 8
  switch i32 %10, label %123 [
    i32 0, label %11
    i32 42, label %11
    i32 39, label %11
    i32 43, label %11
    i32 41, label %11
    i32 29, label %14
    i32 38, label %24
    i32 37, label %24
    i32 1, label %62
    i32 28, label %62
    i32 18, label %62
    i32 40, label %63
    i32 32, label %67
    i32 31, label %76
    i32 24, label %80
    i32 30, label %92
    i32 26, label %98
    i32 27, label %98
    i32 2, label %104
    i32 3, label %104
    i32 4, label %104
    i32 5, label %104
    i32 6, label %104
    i32 7, label %104
    i32 8, label %104
    i32 9, label %104
    i32 10, label %104
    i32 11, label %104
    i32 12, label %104
    i32 14, label %104
    i32 13, label %104
    i32 15, label %104
    i32 16, label %104
    i32 17, label %104
    i32 21, label %104
    i32 25, label %110
    i32 20, label %110
    i32 19, label %110
    i32 23, label %110
    i32 22, label %110
    i32 33, label %116
    i32 36, label %116
    i32 35, label %116
    i32 34, label %121
  ]

11:                                               ; preds = %7, %7, %7, %7, %7
  br label %12

12:                                               ; preds = %11
  call void (ptr, ...) @error_exit(ptr noundef @.str, ptr noundef @.str.17, ptr noundef @__func__.type_abi_alignment, ptr noundef @.str.2, i32 noundef 662) #7
  unreachable

13:                                               ; No predecessors!
  br label %14

14:                                               ; preds = %13, %7
  %15 = load ptr, ptr %3, align 8
  %16 = getelementptr inbounds %struct.Type_, ptr %15, i32 0, i32 7
  %17 = load ptr, ptr %16, align 8
  %18 = getelementptr inbounds %struct.Decl_, ptr %17, i32 0, i32 11
  %19 = getelementptr inbounds %struct.anon.6, ptr %18, i32 0, i32 2
  %20 = getelementptr inbounds %struct.BitStructDecl, ptr %19, i32 0, i32 0
  %21 = load ptr, ptr %20, align 8
  %22 = getelementptr inbounds %struct.TypeInfo_, ptr %21, i32 0, i32 1
  %23 = load ptr, ptr %22, align 8
  store ptr %23, ptr %3, align 8
  br label %7

24:                                               ; preds = %7, %7
  %25 = load ptr, ptr %3, align 8
  %26 = getelementptr inbounds %struct.Type_, ptr %25, i32 0, i32 7
  %27 = getelementptr inbounds %struct.TypeArray, ptr %26, i32 0, i32 1
  %28 = load i32, ptr %27, align 8
  store i32 %28, ptr %4, align 4
  %29 = load i32, ptr %4, align 4
  %30 = icmp ne i32 %29, 0
  br i1 %30, label %32, label %31

31:                                               ; preds = %24
  store i32 1, ptr %4, align 4
  br label %32

32:                                               ; preds = %31, %24
  %33 = load ptr, ptr %3, align 8
  %34 = getelementptr inbounds %struct.Type_, ptr %33, i32 0, i32 7
  %35 = getelementptr inbounds %struct.TypeArray, ptr %34, i32 0, i32 0
  %36 = load ptr, ptr %35, align 8
  %37 = call i32 @type_size(ptr noundef %36)
  %38 = load i32, ptr %4, align 4
  %39 = mul i32 %37, %38
  %40 = zext i32 %39 to i64
  store i64 %40, ptr %5, align 8
  %41 = load i64, ptr %5, align 8
  %42 = trunc i64 %41 to i32
  store i32 %42, ptr %6, align 4
  %43 = load i32, ptr %6, align 4
  %44 = load i32, ptr %6, align 4
  %45 = sub i32 %44, 1
  %46 = and i32 %43, %45
  %47 = icmp ne i32 %46, 0
  br i1 %47, label %48, label %51

48:                                               ; preds = %32
  %49 = load i32, ptr %6, align 4
  %50 = call i32 @next_highest_power_of_2(i32 noundef %49)
  store i32 %50, ptr %6, align 4
  br label %51

51:                                               ; preds = %48, %32
  %52 = load i32, ptr @max_alignment_vector, align 4
  %53 = icmp ne i32 %52, 0
  br i1 %53, label %54, label %60

54:                                               ; preds = %51
  %55 = load i32, ptr %6, align 4
  %56 = load i32, ptr @max_alignment_vector, align 4
  %57 = icmp ugt i32 %55, %56
  br i1 %57, label %58, label %60

58:                                               ; preds = %54
  %59 = load i32, ptr @max_alignment_vector, align 4
  store i32 %59, ptr %6, align 4
  br label %60

60:                                               ; preds = %58, %54, %51
  %61 = load i32, ptr %6, align 4
  store i32 %61, ptr %2, align 4
  br label %125

62:                                               ; preds = %7, %7, %7
  store i32 1, ptr %2, align 4
  br label %125

63:                                               ; preds = %7
  %64 = load ptr, ptr %3, align 8
  %65 = getelementptr inbounds %struct.Type_, ptr %64, i32 0, i32 7
  %66 = load ptr, ptr %65, align 8
  store ptr %66, ptr %3, align 8
  br label %7

67:                                               ; preds = %7
  %68 = load ptr, ptr %3, align 8
  %69 = getelementptr inbounds %struct.Type_, ptr %68, i32 0, i32 7
  %70 = load ptr, ptr %69, align 8
  %71 = getelementptr inbounds %struct.Decl_, ptr %70, i32 0, i32 11
  %72 = getelementptr inbounds %struct.anon.6, ptr %71, i32 0, i32 2
  %73 = load ptr, ptr %72, align 8
  %74 = getelementptr inbounds %struct.TypeInfo_, ptr %73, i32 0, i32 1
  %75 = load ptr, ptr %74, align 8
  store ptr %75, ptr %3, align 8
  br label %7

76:                                               ; preds = %7
  %77 = load ptr, ptr %3, align 8
  %78 = getelementptr inbounds %struct.Type_, ptr %77, i32 0, i32 1
  %79 = load ptr, ptr %78, align 8
  store ptr %79, ptr %3, align 8
  br label %7

80:                                               ; preds = %7
  %81 = load ptr, ptr %3, align 8
  %82 = getelementptr inbounds %struct.Type_, ptr %81, i32 0, i32 7
  %83 = load ptr, ptr %82, align 8
  %84 = getelementptr inbounds %struct.Decl_, ptr %83, i32 0, i32 11
  %85 = getelementptr inbounds %struct.anon.6, ptr %84, i32 0, i32 2
  %86 = getelementptr inbounds %struct.EnumDecl, ptr %85, i32 0, i32 2
  %87 = load ptr, ptr %86, align 8
  %88 = getelementptr inbounds %struct.TypeInfo_, ptr %87, i32 0, i32 1
  %89 = load ptr, ptr %88, align 8
  %90 = getelementptr inbounds %struct.Type_, ptr %89, i32 0, i32 1
  %91 = load ptr, ptr %90, align 8
  store ptr %91, ptr %3, align 8
  br label %7

92:                                               ; preds = %7
  %93 = load ptr, ptr getelementptr inbounds (%struct.anon, ptr @t, i32 0, i32 19, i32 1), align 8
  %94 = getelementptr inbounds %struct.Type_, ptr %93, i32 0, i32 7
  %95 = load i32, ptr %94, align 8
  %96 = lshr i32 %95, 16
  %97 = and i32 %96, 255
  store i32 %97, ptr %2, align 4
  br label %125

98:                                               ; preds = %7, %7
  %99 = load ptr, ptr %3, align 8
  %100 = getelementptr inbounds %struct.Type_, ptr %99, i32 0, i32 7
  %101 = load ptr, ptr %100, align 8
  %102 = getelementptr inbounds %struct.Decl_, ptr %101, i32 0, i32 5
  %103 = load i32, ptr %102, align 8
  store i32 %103, ptr %2, align 4
  br label %125

104:                                              ; preds = %7, %7, %7, %7, %7, %7, %7, %7, %7, %7, %7, %7, %7, %7, %7, %7, %7
  %105 = load ptr, ptr %3, align 8
  %106 = getelementptr inbounds %struct.Type_, ptr %105, i32 0, i32 7
  %107 = load i32, ptr %106, align 8
  %108 = lshr i32 %107, 16
  %109 = and i32 %108, 255
  store i32 %109, ptr %2, align 4
  br label %125

110:                                              ; preds = %7, %7, %7, %7, %7
  %111 = load ptr, ptr getelementptr inbounds (%struct.anon, ptr @t, i32 0, i32 19, i32 1), align 8
  %112 = getelementptr inbounds %struct.Type_, ptr %111, i32 0, i32 7
  %113 = load i32, ptr %112, align 8
  %114 = lshr i32 %113, 16
  %115 = and i32 %114, 255
  store i32 %115, ptr %2, align 4
  br label %125

116:                                              ; preds = %7, %7, %7
  %117 = load ptr, ptr %3, align 8
  %118 = getelementptr inbounds %struct.Type_, ptr %117, i32 0, i32 7
  %119 = getelementptr inbounds %struct.TypeArray, ptr %118, i32 0, i32 0
  %120 = load ptr, ptr %119, align 8
  store ptr %120, ptr %3, align 8
  br label %7

121:                                              ; preds = %7
  %122 = load i32, ptr @alignment_subarray, align 4
  store i32 %122, ptr %2, align 4
  br label %125

123:                                              ; preds = %7
  br label %124

124:                                              ; preds = %123
  call void (ptr, ...) @error_exit(ptr noundef @.str, ptr noundef @.str.17, ptr noundef @__func__.type_abi_alignment, ptr noundef @.str.2, i32 noundef 721) #7
  unreachable

125:                                              ; preds = %121, %110, %104, %98, %92, %62, %60
  %126 = load i32, ptr %2, align 4
  ret i32 %126
}