; Function Attrs: nounwind uwtable
define dso_local i32 @type_abi_alignment(ptr nocapture noundef readonly %0) local_unnamed_addr #0 {
  br label %2

2:                                                ; preds = %.backedge, %1
  %.020 = phi ptr [ %0, %1 ], [ %.020.be, %.backedge ]
  %3 = load i32, ptr %.020, align 8
  switch i32 %3, label %79 [
    i32 0, label %4
    i32 42, label %4
    i32 39, label %4
    i32 43, label %4
    i32 41, label %4
    i32 29, label %5
    i32 38, label %11
    i32 37, label %11
    i32 1, label %.loopexit
    i32 28, label %.loopexit
    i32 18, label %.loopexit
    i32 40, label %35
    i32 32, label %37
    i32 31, label %43
    i32 24, label %45
    i32 30, label %53
    i32 26, label %59
    i32 27, label %59
    i32 2, label %64
    i32 3, label %64
    i32 4, label %64
    i32 5, label %64
    i32 6, label %64
    i32 7, label %64
    i32 8, label %64
    i32 9, label %64
    i32 10, label %64
    i32 11, label %64
    i32 12, label %64
    i32 14, label %64
    i32 13, label %64
    i32 15, label %64
    i32 16, label %64
    i32 17, label %64
    i32 21, label %64
    i32 25, label %69
    i32 20, label %69
    i32 19, label %69
    i32 23, label %69
    i32 22, label %69
    i32 33, label %75
    i32 36, label %75
    i32 35, label %75
    i32 34, label %77
  ]

4:                                                ; preds = %2, %2, %2, %2, %2
  tail call void (ptr, ...) @error_exit(ptr noundef nonnull @.str, ptr noundef nonnull @.str.17, ptr noundef nonnull @__func__.type_abi_alignment, ptr noundef nonnull @.str.2, i32 noundef 662) #13
  unreachable

5:                                                ; preds = %2
  %6 = getelementptr inbounds i8, ptr %.020, i64 56
  %7 = load ptr, ptr %6, align 8
  %8 = getelementptr inbounds i8, ptr %7, i64 96
  %9 = load ptr, ptr %8, align 8
  %10 = getelementptr inbounds i8, ptr %9, i64 8
  br label %.backedge

.backedge:                                        ; preds = %5, %35, %37, %43, %45, %75
  %.020.be.in = phi ptr [ %76, %75 ], [ %52, %45 ], [ %44, %43 ], [ %42, %37 ], [ %36, %35 ], [ %10, %5 ]
  %.020.be = load ptr, ptr %.020.be.in, align 8
  br label %2

11:                                               ; preds = %2, %2
  %12 = getelementptr inbounds i8, ptr %.020, i64 56
  %13 = getelementptr inbounds i8, ptr %.020, i64 64
  %14 = load i32, ptr %13, align 8
  %spec.store.select = tail call i32 @llvm.umax.i32(i32 %14, i32 1)
  %15 = load ptr, ptr %12, align 8
  %16 = tail call i32 @type_size(ptr noundef %15)
  %17 = mul i32 %16, %spec.store.select
  %18 = tail call i32 @llvm.ctpop.i32(i32 %17), !range !9
  %.not = icmp ult i32 %18, 2
  br i1 %.not, label %32, label %19

19:                                               ; preds = %11
  %20 = add i32 %17, -1
  %21 = lshr i32 %20, 1
  %22 = or i32 %21, %20
  %23 = lshr i32 %22, 2
  %24 = or i32 %23, %22
  %25 = lshr i32 %24, 4
  %26 = or i32 %25, %24
  %27 = lshr i32 %26, 8
  %28 = or i32 %27, %26
  %29 = lshr i32 %28, 16
  %30 = or i32 %29, %28
  %31 = add i32 %30, 1
  br label %32

32:                                               ; preds = %19, %11
  %.0 = phi i32 [ %31, %19 ], [ %17, %11 ]
  %33 = load i32, ptr @max_alignment_vector, align 4
  %.not22.not = icmp eq i32 %33, 0
  %34 = tail call i32 @llvm.umin.i32(i32 %.0, i32 %33)
  %.1 = select i1 %.not22.not, i32 %.0, i32 %34
  br label %.loopexit

35:                                               ; preds = %2
  %36 = getelementptr inbounds i8, ptr %.020, i64 56
  br label %.backedge

37:                                               ; preds = %2
  %38 = getelementptr inbounds i8, ptr %.020, i64 56
  %39 = load ptr, ptr %38, align 8
  %40 = getelementptr inbounds i8, ptr %39, i64 96
  %41 = load ptr, ptr %40, align 8
  %42 = getelementptr inbounds i8, ptr %41, i64 8
  br label %.backedge

43:                                               ; preds = %2
  %44 = getelementptr inbounds i8, ptr %.020, i64 8
  br label %.backedge

45:                                               ; preds = %2
  %46 = getelementptr inbounds i8, ptr %.020, i64 56
  %47 = load ptr, ptr %46, align 8
  %48 = getelementptr inbounds i8, ptr %47, i64 112
  %49 = load ptr, ptr %48, align 8
  %50 = getelementptr inbounds i8, ptr %49, i64 8
  %51 = load ptr, ptr %50, align 8
  %52 = getelementptr inbounds i8, ptr %51, i64 8
  br label %.backedge

53:                                               ; preds = %2
  %54 = load ptr, ptr getelementptr inbounds (%struct.anon, ptr @t, i64 0, i32 19, i32 1), align 8
  %55 = getelementptr inbounds i8, ptr %54, i64 56
  %56 = load i32, ptr %55, align 8
  %57 = lshr i32 %56, 16
  %58 = and i32 %57, 255
  br label %.loopexit

59:                                               ; preds = %2, %2
  %60 = getelementptr inbounds i8, ptr %.020, i64 56
  %61 = load ptr, ptr %60, align 8
  %62 = getelementptr inbounds i8, ptr %61, i64 40
  %63 = load i32, ptr %62, align 8
  br label %.loopexit

64:                                               ; preds = %2, %2, %2, %2, %2, %2, %2, %2, %2, %2, %2, %2, %2, %2, %2, %2, %2
  %65 = getelementptr inbounds i8, ptr %.020, i64 56
  %66 = load i32, ptr %65, align 8
  %67 = lshr i32 %66, 16
  %68 = and i32 %67, 255
  br label %.loopexit

69:                                               ; preds = %2, %2, %2, %2, %2
  %70 = load ptr, ptr getelementptr inbounds (%struct.anon, ptr @t, i64 0, i32 19, i32 1), align 8
  %71 = getelementptr inbounds i8, ptr %70, i64 56
  %72 = load i32, ptr %71, align 8
  %73 = lshr i32 %72, 16
  %74 = and i32 %73, 255
  br label %.loopexit

75:                                               ; preds = %2, %2, %2
  %76 = getelementptr inbounds i8, ptr %.020, i64 56
  br label %.backedge

77:                                               ; preds = %2
  %78 = load i32, ptr @alignment_subarray, align 4
  br label %.loopexit

79:                                               ; preds = %2
  tail call void (ptr, ...) @error_exit(ptr noundef nonnull @.str, ptr noundef nonnull @.str.17, ptr noundef nonnull @__func__.type_abi_alignment, ptr noundef nonnull @.str.2, i32 noundef 721) #13
  unreachable

.loopexit:                                        ; preds = %2, %2, %2, %77, %69, %64, %59, %53, %32
  %.019 = phi i32 [ %78, %77 ], [ %74, %69 ], [ %68, %64 ], [ %63, %59 ], [ %58, %53 ], [ %.1, %32 ], [ 1, %2 ], [ 1, %2 ], [ 1, %2 ]
  ret i32 %.019
}